; Function Attrs: mustprogress uwtable
define hidden void @_ZN7datalog12boogie_proof9set_proofEP3app(ptr noundef nonnull align 8 dereferenceable(32) %this, ptr noundef %p) local_unnamed_addr #3 align 2 {
entry:
  %m_proof = getelementptr inbounds i8, ptr %this, i64 8
  %tobool.not.i = icmp eq ptr %p, null
  br i1 %tobool.not.i, label %if.end.i, label %_ZN11ast_manager7inc_refEP3ast.exit.i

_ZN11ast_manager7inc_refEP3ast.exit.i:            ; preds = %entry
  %m_ref_count.i.i.i = getelementptr inbounds i8, ptr %p, i64 8
  %0 = load i32, ptr %m_ref_count.i.i.i, align 4
  %inc.i.i.i = add i32 %0, 1
  store i32 %inc.i.i.i, ptr %m_ref_count.i.i.i, align 4
  br label %if.end.i

if.end.i:                                         ; preds = %_ZN11ast_manager7inc_refEP3ast.exit.i, %entry
  %1 = load ptr, ptr %m_proof, align 8
  %tobool.not.i3.i = icmp eq ptr %1, null
  br i1 %tobool.not.i3.i, label %_ZN7obj_refI3app11ast_managerEaSEPS0_.exit, label %if.then.i.i.i

if.then.i.i.i:                                    ; preds = %if.end.i
  %m_manager.i.i = getelementptr inbounds i8, ptr %this, i64 16
  %2 = load ptr, ptr %m_manager.i.i, align 8
  %m_ref_count.i.i.i.i = getelementptr inbounds i8, ptr %1, i64 8
  %3 = load i32, ptr %m_ref_count.i.i.i.i, align 4
  %dec.i.i.i.i = add i32 %3, -1
  store i32 %dec.i.i.i.i, ptr %m_ref_count.i.i.i.i, align 4
  %cmp.i.i.i = icmp eq i32 %dec.i.i.i.i, 0
  br i1 %cmp.i.i.i, label %if.then2.i.i.i, label %_ZN7obj_refI3app11ast_managerEaSEPS0_.exit

if.then2.i.i.i:                                   ; preds = %if.then.i.i.i
  tail call void @_ZN11ast_manager11delete_nodeEP3ast(ptr noundef nonnull align 8 dereferenceable(976) %2, ptr noundef nonnull %1)
  br label %_ZN7obj_refI3app11ast_managerEaSEPS0_.exit

_ZN7obj_refI3app11ast_managerEaSEPS0_.exit:       ; preds = %if.end.i, %if.then.i.i.i, %if.then2.i.i.i
  store ptr %p, ptr %m_proof, align 8
  tail call void @_ZN11proof_utils22push_instantiations_upER7obj_refI3app11ast_managerE(ptr noundef nonnull align 8 dereferenceable(16) %m_proof)
  tail call void @_ZN7datalog19mk_input_resolutionER7obj_refI3app11ast_managerE(ptr noundef nonnull align 8 dereferenceable(16) %m_proof)
  ret void
}